target datalayout = "e-m:e-p270:32:32-p271:32:32-p272:64:64-i64:64-i128:128-f80:128-n8:16:32:64-S128"
target triple = "x86_64-pc-linux-gnu"

%struct.bignum_st = type { ptr, i32, i32, i32, i32 }

; Function Attrs: nounwind uwtable
define i32 @BN_mod_exp(ptr noundef %0, ptr noundef %1, ptr noundef %2, ptr noundef %3, ptr noundef %4) #0 {
  %6 = alloca ptr, align 8
  %7 = alloca ptr, align 8
  %8 = alloca ptr, align 8
  %9 = alloca ptr, align 8
  %10 = alloca ptr, align 8
  %11 = alloca i32, align 4
  %12 = alloca i64, align 8
  store ptr %0, ptr %6, align 8, !tbaa !3
  store ptr %1, ptr %7, align 8, !tbaa !3
  store ptr %2, ptr %8, align 8, !tbaa !3
  store ptr %3, ptr %9, align 8, !tbaa !3
  store ptr %4, ptr %10, align 8, !tbaa !8
  call void @llvm.lifetime.start.p0(i64 4, ptr %11) #5
  %13 = load ptr, ptr %9, align 8, !tbaa !3
  %14 = call i32 @BN_is_odd(ptr noundef %13)
  %15 = icmp ne i32 %14, 0
  br i1 %15, label %16, label %58

16:                                               ; preds = %5
  %17 = load ptr, ptr %7, align 8, !tbaa !3
  %18 = getelementptr inbounds nuw %struct.bignum_st, ptr %17, i32 0, i32 1
  %19 = load i32, ptr %18, align 8, !tbaa !14
  %20 = icmp eq i32 %19, 1
  br i1 %20, label %21, label %50

21:                                               ; preds = %16
  %22 = load ptr, ptr %7, align 8, !tbaa !3
  %23 = getelementptr inbounds nuw %struct.bignum_st, ptr %22, i32 0, i32 3
  %24 = load i32, ptr %23, align 8, !tbaa !17
  %25 = icmp ne i32 %24, 0
  br i1 %25, label %50, label %26

26:                                               ; preds = %21
  %27 = load ptr, ptr %8, align 8, !tbaa !3
  %28 = call i32 @BN_get_flags(ptr noundef %27, i32 noundef 4)
  %29 = icmp eq i32 %28, 0
  br i1 %29, label %30, label %50

30:                                               ; preds = %26
  %31 = load ptr, ptr %7, align 8, !tbaa !3
  %32 = call i32 @BN_get_flags(ptr noundef %31, i32 noundef 4)
  %33 = icmp eq i32 %32, 0
  br i1 %33, label %34, label %50

34:                                               ; preds = %30
  %35 = load ptr, ptr %9, align 8, !tbaa !3
  %36 = call i32 @BN_get_flags(ptr noundef %35, i32 noundef 4)
  %37 = icmp eq i32 %36, 0
  br i1 %37, label %38, label %50

38:                                               ; preds = %34
  call void @llvm.lifetime.start.p0(i64 8, ptr %12) #5
  %39 = load ptr, ptr %7, align 8, !tbaa !3
  %40 = getelementptr inbounds nuw %struct.bignum_st, ptr %39, i32 0, i32 0
  %41 = load ptr, ptr %40, align 8, !tbaa !18
  %42 = getelementptr inbounds i64, ptr %41, i64 0
  %43 = load i64, ptr %42, align 8, !tbaa !19
  store i64 %43, ptr %12, align 8, !tbaa !19
  %44 = load ptr, ptr %6, align 8, !tbaa !3
  %45 = load i64, ptr %12, align 8, !tbaa !19
  %46 = load ptr, ptr %8, align 8, !tbaa !3
  %47 = load ptr, ptr %9, align 8, !tbaa !3
  %48 = load ptr, ptr %10, align 8, !tbaa !8
  %49 = call i32 @BN_mod_exp_mont_word(ptr noundef %44, i64 noundef %45, ptr noundef %46, ptr noundef %47, ptr noundef %48, ptr noundef null)
  store i32 %49, ptr %11, align 4, !tbaa !10
  call void @llvm.lifetime.end.p0(i64 8, ptr %12) #5
  br label %57

50:                                               ; preds = %34, %30, %26, %21, %16
  %51 = load ptr, ptr %6, align 8, !tbaa !3
  %52 = load ptr, ptr %7, align 8, !tbaa !3
  %53 = load ptr, ptr %8, align 8, !tbaa !3
  %54 = load ptr, ptr %9, align 8, !tbaa !3
  %55 = load ptr, ptr %10, align 8, !tbaa !8
  %56 = call i32 @BN_mod_exp_mont(ptr noundef %51, ptr noundef %52, ptr noundef %53, ptr noundef %54, ptr noundef %55, ptr noundef null)
  store i32 %56, ptr %11, align 4, !tbaa !10
  br label %57

57:                                               ; preds = %50, %38
  br label %65

58:                                               ; preds = %5
  %59 = load ptr, ptr %6, align 8, !tbaa !3
  %60 = load ptr, ptr %7, align 8, !tbaa !3
  %61 = load ptr, ptr %8, align 8, !tbaa !3
  %62 = load ptr, ptr %9, align 8, !tbaa !3
  %63 = load ptr, ptr %10, align 8, !tbaa !8
  %64 = call i32 @BN_mod_exp_recp(ptr noundef %59, ptr noundef %60, ptr noundef %61, ptr noundef %62, ptr noundef %63)
  store i32 %64, ptr %11, align 4, !tbaa !10
  br label %65

65:                                               ; preds = %58, %57
  %66 = load i32, ptr %11, align 4, !tbaa !10
  call void @llvm.lifetime.end.p0(i64 4, ptr %11) #5
  ret i32 %66
}