; Function Attrs: nounwind uwtable
define i32 @BN_mod_exp(ptr noundef %0, ptr noundef %1, ptr noundef %2, ptr noundef %3, ptr noundef %4) local_unnamed_addr #0 {
  %6 = tail call i32 @BN_is_odd(ptr noundef %3) #6
  %.not = icmp eq i32 %6, 0
  br i1 %.not, label %29, label %7

7:                                                ; preds = %5
  %8 = getelementptr inbounds nuw i8, ptr %1, i64 8
  %9 = load i32, ptr %8, align 8, !tbaa !5
  %10 = icmp eq i32 %9, 1
  br i1 %10, label %11, label %27

11:                                               ; preds = %7
  %12 = getelementptr inbounds nuw i8, ptr %1, i64 16
  %13 = load i32, ptr %12, align 8, !tbaa !12
  %.not22 = icmp eq i32 %13, 0
  br i1 %.not22, label %14, label %27

14:                                               ; preds = %11
  %15 = tail call i32 @BN_get_flags(ptr noundef %2, i32 noundef 4) #6
  %16 = icmp eq i32 %15, 0
  br i1 %16, label %17, label %27

17:                                               ; preds = %14
  %18 = tail call i32 @BN_get_flags(ptr noundef nonnull %1, i32 noundef 4) #6
  %19 = icmp eq i32 %18, 0
  br i1 %19, label %20, label %27

20:                                               ; preds = %17
  %21 = tail call i32 @BN_get_flags(ptr noundef %3, i32 noundef 4) #6
  %22 = icmp eq i32 %21, 0
  br i1 %22, label %23, label %27

23:                                               ; preds = %20
  %24 = load ptr, ptr %1, align 8, !tbaa !13
  %25 = load i64, ptr %24, align 8, !tbaa !14
  %26 = tail call i32 @BN_mod_exp_mont_word(ptr noundef %0, i64 noundef %25, ptr noundef %2, ptr noundef %3, ptr noundef %4, ptr noundef null)
  br label %31

27:                                               ; preds = %20, %17, %14, %11, %7
  %28 = tail call i32 @BN_mod_exp_mont(ptr noundef %0, ptr noundef nonnull %1, ptr noundef %2, ptr noundef %3, ptr noundef %4, ptr noundef null)
  br label %31

29:                                               ; preds = %5
  %30 = tail call i32 @BN_mod_exp_recp(ptr noundef %0, ptr noundef %1, ptr noundef %2, ptr noundef %3, ptr noundef %4)
  br label %31

31:                                               ; preds = %23, %27, %29
  %.0 = phi i32 [ %28, %27 ], [ %26, %23 ], [ %30, %29 ]
  ret i32 %.0
}